target datalayout = "e-m:e-p270:32:32-p271:32:32-p272:64:64-i64:64-i128:128-f80:128-n8:16:32:64-S128"
target triple = "x86_64-pc-linux-gnu"

%struct.RangeCoder = type { i32, i32, i32, i32, [256 x i8], [256 x i8], ptr, ptr, ptr, i32 }

; Function Attrs: inlinehint nounwind uwtable
define internal void @renorm_encoder(ptr noundef %0) #11 {
  %2 = alloca ptr, align 8
  %3 = alloca i32, align 4
  store ptr %0, ptr %2, align 8, !tbaa !128
  %4 = load ptr, ptr %2, align 8, !tbaa !128
  %5 = getelementptr inbounds nuw %struct.RangeCoder, ptr %4, i32 0, i32 0
  %6 = load i32, ptr %5, align 8, !tbaa !299
  %7 = sub nsw i32 %6, 65281
  %8 = icmp uge i32 %7, 255
  br i1 %8, label %9, label %59

9:                                                ; preds = %1
  call void @llvm.lifetime.start.p0(i64 4, ptr %3) #14
  %10 = load ptr, ptr %2, align 8, !tbaa !128
  %11 = getelementptr inbounds nuw %struct.RangeCoder, ptr %10, i32 0, i32 0
  %12 = load i32, ptr %11, align 8, !tbaa !299
  %13 = sub nsw i32 %12, 65281
  %14 = ashr i32 %13, 31
  store i32 %14, ptr %3, align 4, !tbaa !88
  %15 = load ptr, ptr %2, align 8, !tbaa !128
  %16 = getelementptr inbounds nuw %struct.RangeCoder, ptr %15, i32 0, i32 3
  %17 = load i32, ptr %16, align 4, !tbaa !307
  %18 = add nsw i32 %17, 1
  %19 = load i32, ptr %3, align 4, !tbaa !88
  %20 = add nsw i32 %18, %19
  %21 = trunc i32 %20 to i8
  %22 = load ptr, ptr %2, align 8, !tbaa !128
  %23 = getelementptr inbounds nuw %struct.RangeCoder, ptr %22, i32 0, i32 7
  %24 = load ptr, ptr %23, align 8, !tbaa !308
  store i8 %21, ptr %24, align 1, !tbaa !92
  %25 = load ptr, ptr %2, align 8, !tbaa !128
  %26 = getelementptr inbounds nuw %struct.RangeCoder, ptr %25, i32 0, i32 3
  %27 = load i32, ptr %26, align 4, !tbaa !307
  %28 = icmp sge i32 %27, 0
  %29 = zext i1 %28 to i32
  %30 = load ptr, ptr %2, align 8, !tbaa !128
  %31 = getelementptr inbounds nuw %struct.RangeCoder, ptr %30, i32 0, i32 7
  %32 = load ptr, ptr %31, align 8, !tbaa !308
  %33 = sext i32 %29 to i64
  %34 = getelementptr inbounds i8, ptr %32, i64 %33
  store ptr %34, ptr %31, align 8, !tbaa !308
  br label %35

35:                                               ; preds = %47, %9
  %36 = load ptr, ptr %2, align 8, !tbaa !128
  %37 = getelementptr inbounds nuw %struct.RangeCoder, ptr %36, i32 0, i32 2
  %38 = load i32, ptr %37, align 8, !tbaa !309
  %39 = icmp ne i32 %38, 0
  br i1 %39, label %40, label %52

40:                                               ; preds = %35
  %41 = load i32, ptr %3, align 4, !tbaa !88
  %42 = trunc i32 %41 to i8
  %43 = load ptr, ptr %2, align 8, !tbaa !128
  %44 = getelementptr inbounds nuw %struct.RangeCoder, ptr %43, i32 0, i32 7
  %45 = load ptr, ptr %44, align 8, !tbaa !308
  %46 = getelementptr inbounds nuw i8, ptr %45, i32 1
  store ptr %46, ptr %44, align 8, !tbaa !308
  store i8 %42, ptr %45, align 1, !tbaa !92
  br label %47

47:                                               ; preds = %40
  %48 = load ptr, ptr %2, align 8, !tbaa !128
  %49 = getelementptr inbounds nuw %struct.RangeCoder, ptr %48, i32 0, i32 2
  %50 = load i32, ptr %49, align 8, !tbaa !309
  %51 = add nsw i32 %50, -1
  store i32 %51, ptr %49, align 8, !tbaa !309
  br label %35, !llvm.loop !310

52:                                               ; preds = %35
  %53 = load ptr, ptr %2, align 8, !tbaa !128
  %54 = getelementptr inbounds nuw %struct.RangeCoder, ptr %53, i32 0, i32 0
  %55 = load i32, ptr %54, align 8, !tbaa !299
  %56 = ashr i32 %55, 8
  %57 = load ptr, ptr %2, align 8, !tbaa !128
  %58 = getelementptr inbounds nuw %struct.RangeCoder, ptr %57, i32 0, i32 3
  store i32 %56, ptr %58, align 4, !tbaa !307
  call void @llvm.lifetime.end.p0(i64 4, ptr %3) #14
  br label %64

59:                                               ; preds = %1
  %60 = load ptr, ptr %2, align 8, !tbaa !128
  %61 = getelementptr inbounds nuw %struct.RangeCoder, ptr %60, i32 0, i32 2
  %62 = load i32, ptr %61, align 8, !tbaa !309
  %63 = add nsw i32 %62, 1
  store i32 %63, ptr %61, align 8, !tbaa !309
  br label %64

64:                                               ; preds = %59, %52
  %65 = load ptr, ptr %2, align 8, !tbaa !128
  %66 = getelementptr inbounds nuw %struct.RangeCoder, ptr %65, i32 0, i32 0
  %67 = load i32, ptr %66, align 8, !tbaa !299
  %68 = and i32 %67, 255
  %69 = shl i32 %68, 8
  %70 = load ptr, ptr %2, align 8, !tbaa !128
  %71 = getelementptr inbounds nuw %struct.RangeCoder, ptr %70, i32 0, i32 0
  store i32 %69, ptr %71, align 8, !tbaa !299
  %72 = load ptr, ptr %2, align 8, !tbaa !128
  %73 = getelementptr inbounds nuw %struct.RangeCoder, ptr %72, i32 0, i32 1
  %74 = load i32, ptr %73, align 4, !tbaa !298
  %75 = shl i32 %74, 8
  store i32 %75, ptr %73, align 4, !tbaa !298
  ret void
}

; Function Attrs: inlinehint nounwind uwtable
define internal void @put_rac(ptr noundef %0, ptr noundef %1, i32 noundef %2) #11 {
  %4 = alloca ptr, align 8
  %5 = alloca ptr, align 8
  %6 = alloca i32, align 4
  %7 = alloca i32, align 4
  store ptr %0, ptr %4, align 8, !tbaa !128
  store ptr %1, ptr %5, align 8, !tbaa !138
  store i32 %2, ptr %6, align 4, !tbaa !88
  call void @llvm.lifetime.start.p0(i64 4, ptr %7) #14
  %8 = load ptr, ptr %4, align 8, !tbaa !128
  %9 = getelementptr inbounds nuw %struct.RangeCoder, ptr %8, i32 0, i32 1
  %10 = load i32, ptr %9, align 4, !tbaa !298
  %11 = load ptr, ptr %5, align 8, !tbaa !138
  %12 = load i8, ptr %11, align 1, !tbaa !92
  %13 = zext i8 %12 to i32
  %14 = mul nsw i32 %10, %13
  %15 = ashr i32 %14, 8
  store i32 %15, ptr %7, align 4, !tbaa !88
  %16 = load i32, ptr %6, align 4, !tbaa !88
  %17 = icmp ne i32 %16, 0
  br i1 %17, label %32, label %18

18:                                               ; preds = %3
  %19 = load i32, ptr %7, align 4, !tbaa !88
  %20 = load ptr, ptr %4, align 8, !tbaa !128
  %21 = getelementptr inbounds nuw %struct.RangeCoder, ptr %20, i32 0, i32 1
  %22 = load i32, ptr %21, align 4, !tbaa !298
  %23 = sub nsw i32 %22, %19
  store i32 %23, ptr %21, align 4, !tbaa !298
  %24 = load ptr, ptr %4, align 8, !tbaa !128
  %25 = getelementptr inbounds nuw %struct.RangeCoder, ptr %24, i32 0, i32 4
  %26 = load ptr, ptr %5, align 8, !tbaa !138
  %27 = load i8, ptr %26, align 1, !tbaa !92
  %28 = zext i8 %27 to i64
  %29 = getelementptr inbounds nuw [256 x i8], ptr %25, i64 0, i64 %28
  %30 = load i8, ptr %29, align 1, !tbaa !92
  %31 = load ptr, ptr %5, align 8, !tbaa !138
  store i8 %30, ptr %31, align 1, !tbaa !92
  br label %53

32:                                               ; preds = %3
  %33 = load ptr, ptr %4, align 8, !tbaa !128
  %34 = getelementptr inbounds nuw %struct.RangeCoder, ptr %33, i32 0, i32 1
  %35 = load i32, ptr %34, align 4, !tbaa !298
  %36 = load i32, ptr %7, align 4, !tbaa !88
  %37 = sub nsw i32 %35, %36
  %38 = load ptr, ptr %4, align 8, !tbaa !128
  %39 = getelementptr inbounds nuw %struct.RangeCoder, ptr %38, i32 0, i32 0
  %40 = load i32, ptr %39, align 8, !tbaa !299
  %41 = add nsw i32 %40, %37
  store i32 %41, ptr %39, align 8, !tbaa !299
  %42 = load i32, ptr %7, align 4, !tbaa !88
  %43 = load ptr, ptr %4, align 8, !tbaa !128
  %44 = getelementptr inbounds nuw %struct.RangeCoder, ptr %43, i32 0, i32 1
  store i32 %42, ptr %44, align 4, !tbaa !298
  %45 = load ptr, ptr %4, align 8, !tbaa !128
  %46 = getelementptr inbounds nuw %struct.RangeCoder, ptr %45, i32 0, i32 5
  %47 = load ptr, ptr %5, align 8, !tbaa !138
  %48 = load i8, ptr %47, align 1, !tbaa !92
  %49 = zext i8 %48 to i64
  %50 = getelementptr inbounds nuw [256 x i8], ptr %46, i64 0, i64 %49
  %51 = load i8, ptr %50, align 1, !tbaa !92
  %52 = load ptr, ptr %5, align 8, !tbaa !138
  store i8 %51, ptr %52, align 1, !tbaa !92
  br label %53

53:                                               ; preds = %32, %18
  %54 = load ptr, ptr %4, align 8, !tbaa !128
  %55 = getelementptr inbounds nuw %struct.RangeCoder, ptr %54, i32 0, i32 1
  %56 = load i32, ptr %55, align 4, !tbaa !298
  %57 = icmp slt i32 %56, 256
  br i1 %57, label %58, label %60

58:                                               ; preds = %53
  %59 = load ptr, ptr %4, align 8, !tbaa !128
  call void @renorm_encoder(ptr noundef %59)
  br label %60

60:                                               ; preds = %58, %53
  call void @llvm.lifetime.end.p0(i64 4, ptr %7) #14
  ret void
}

; Function Attrs: inlinehint nounwind uwtable
define internal void @put_symbol2(ptr noundef %0, ptr noundef %1, i32 noundef %2, i32 noundef %3) #11 {
  %5 = alloca ptr, align 8
  %6 = alloca ptr, align 8
  %7 = alloca i32, align 4
  %8 = alloca i32, align 4
  %9 = alloca i32, align 4
  %10 = alloca i32, align 4
  store ptr %0, ptr %5, align 8, !tbaa !128
  store ptr %1, ptr %6, align 8, !tbaa !138
  store i32 %2, ptr %7, align 4, !tbaa !88
  store i32 %3, ptr %8, align 4, !tbaa !88
  call void @llvm.lifetime.start.p0(i64 4, ptr %9) #14
  %11 = load i32, ptr %8, align 4, !tbaa !88
  %12 = icmp sge i32 %11, 0
  br i1 %12, label %13, label %16

13:                                               ; preds = %4
  %14 = load i32, ptr %8, align 4, !tbaa !88
  %15 = shl i32 1, %14
  br label %17

16:                                               ; preds = %4
  br label %17

17:                                               ; preds = %16, %13
  %18 = phi i32 [ %15, %13 ], [ 1, %16 ]
  store i32 %18, ptr %9, align 4, !tbaa !88
  br label %19

19:                                               ; preds = %41, %17
  %20 = load i32, ptr %7, align 4, !tbaa !88
  %21 = load i32, ptr %9, align 4, !tbaa !88
  %22 = icmp sge i32 %20, %21
  br i1 %22, label %23, label %42

23:                                               ; preds = %19
  %24 = load ptr, ptr %5, align 8, !tbaa !128
  %25 = load ptr, ptr %6, align 8, !tbaa !138
  %26 = getelementptr inbounds i8, ptr %25, i64 4
  %27 = load i32, ptr %8, align 4, !tbaa !88
  %28 = sext i32 %27 to i64
  %29 = getelementptr inbounds i8, ptr %26, i64 %28
  call void @put_rac(ptr noundef %24, ptr noundef %29, i32 noundef 1)
  %30 = load i32, ptr %9, align 4, !tbaa !88
  %31 = load i32, ptr %7, align 4, !tbaa !88
  %32 = sub nsw i32 %31, %30
  store i32 %32, ptr %7, align 4, !tbaa !88
  %33 = load i32, ptr %8, align 4, !tbaa !88
  %34 = add nsw i32 %33, 1
  store i32 %34, ptr %8, align 4, !tbaa !88
  %35 = load i32, ptr %8, align 4, !tbaa !88
  %36 = icmp sgt i32 %35, 0
  br i1 %36, label %37, label %41

37:                                               ; preds = %23
  %38 = load i32, ptr %9, align 4, !tbaa !88
  %39 = load i32, ptr %9, align 4, !tbaa !88
  %40 = add nsw i32 %39, %38
  store i32 %40, ptr %9, align 4, !tbaa !88
  br label %41

41:                                               ; preds = %37, %23
  br label %19, !llvm.loop !420

42:                                               ; preds = %19
  %43 = load ptr, ptr %5, align 8, !tbaa !128
  %44 = load ptr, ptr %6, align 8, !tbaa !138
  %45 = getelementptr inbounds i8, ptr %44, i64 4
  %46 = load i32, ptr %8, align 4, !tbaa !88
  %47 = sext i32 %46 to i64
  %48 = getelementptr inbounds i8, ptr %45, i64 %47
  call void @put_rac(ptr noundef %43, ptr noundef %48, i32 noundef 0)
  call void @llvm.lifetime.start.p0(i64 4, ptr %10) #14
  %49 = load i32, ptr %8, align 4, !tbaa !88
  %50 = sub nsw i32 %49, 1
  store i32 %50, ptr %10, align 4, !tbaa !88
  br label %51

51:                                               ; preds = %67, %42
  %52 = load i32, ptr %10, align 4, !tbaa !88
  %53 = icmp sge i32 %52, 0
  br i1 %53, label %55, label %54

54:                                               ; preds = %51
  call void @llvm.lifetime.end.p0(i64 4, ptr %10) #14
  br label %70

55:                                               ; preds = %51
  %56 = load ptr, ptr %5, align 8, !tbaa !128
  %57 = load ptr, ptr %6, align 8, !tbaa !138
  %58 = getelementptr inbounds i8, ptr %57, i64 31
  %59 = load i32, ptr %10, align 4, !tbaa !88
  %60 = sext i32 %59 to i64
  %61 = sub i64 0, %60
  %62 = getelementptr inbounds i8, ptr %58, i64 %61
  %63 = load i32, ptr %7, align 4, !tbaa !88
  %64 = load i32, ptr %10, align 4, !tbaa !88
  %65 = ashr i32 %63, %64
  %66 = and i32 %65, 1
  call void @put_rac(ptr noundef %56, ptr noundef %62, i32 noundef %66)
  br label %67

67:                                               ; preds = %55
  %68 = load i32, ptr %10, align 4, !tbaa !88
  %69 = add nsw i32 %68, -1
  store i32 %69, ptr %10, align 4, !tbaa !88
  br label %51, !llvm.loop !421

70:                                               ; preds = %54
  call void @llvm.lifetime.end.p0(i64 4, ptr %9) #14
  ret void
}