; Function Attrs: inlinehint nofree norecurse nosync nounwind memory(write, argmem: readwrite, inaccessiblemem: none) uwtable
define internal fastcc void @put_symbol2(ptr noundef captures(none) %0, ptr noundef captures(none) %1, i32 noundef %2, i32 noundef range(i32 -2147483648, 2147483644) %3) unnamed_addr #8 {
  %5 = icmp sgt i32 %3, -1
  %6 = shl nuw i32 1, %3
  %7 = select i1 %5, i32 %6, i32 1
  %.not42 = icmp slt i32 %2, %7
  br i1 %.not42, label %.._crit_edge_crit_edge, label %.lr.ph

.._crit_edge_crit_edge:                           ; preds = %4
  %.phi.trans.insert = getelementptr inbounds nuw i8, ptr %0, i64 4
  %.pre55 = load i32, ptr %.phi.trans.insert, align 4, !tbaa !250
  br label %._crit_edge

.lr.ph:                                           ; preds = %4
  %8 = getelementptr inbounds nuw i8, ptr %1, i64 4
  %9 = getelementptr inbounds nuw i8, ptr %0, i64 4
  %10 = getelementptr inbounds nuw i8, ptr %0, i64 272
  %11 = getelementptr inbounds nuw i8, ptr %0, i64 8
  %12 = getelementptr inbounds nuw i8, ptr %0, i64 12
  %13 = getelementptr inbounds nuw i8, ptr %0, i64 536
  %14 = sext i32 %3 to i64
  %.pre = load i32, ptr %9, align 4, !tbaa !250
  br label %15

15:                                               ; preds = %.lr.ph, %put_rac.exit
  %16 = phi i32 [ %.pre, %.lr.ph ], [ %63, %put_rac.exit ]
  %indvars.iv = phi i64 [ %14, %.lr.ph ], [ %indvars.iv.next, %put_rac.exit ]
  %.02345 = phi i32 [ %7, %.lr.ph ], [ %spec.select, %put_rac.exit ]
  %.02543 = phi i32 [ %2, %.lr.ph ], [ %64, %put_rac.exit ]
  %17 = getelementptr inbounds i8, ptr %8, i64 %indvars.iv
  %18 = load i8, ptr %17, align 1, !tbaa !84
  %19 = zext i8 %18 to i32
  %20 = mul nsw i32 %16, %19
  %21 = ashr i32 %20, 8
  %22 = load i32, ptr %0, align 8, !tbaa !251
  %23 = add i32 %22, %16
  %24 = sub i32 %23, %21
  store i32 %24, ptr %0, align 8, !tbaa !251
  store i32 %21, ptr %9, align 4, !tbaa !250
  %25 = load i8, ptr %17, align 1, !tbaa !84
  %26 = zext i8 %25 to i64
  %27 = getelementptr inbounds nuw [256 x i8], ptr %10, i64 0, i64 %26
  %storemerge.i = load i8, ptr %27, align 1, !tbaa !84
  store i8 %storemerge.i, ptr %17, align 1, !tbaa !84
  %28 = load i32, ptr %9, align 4, !tbaa !250
  %29 = icmp slt i32 %28, 256
  br i1 %29, label %30, label %put_rac.exit

30:                                               ; preds = %15
  %31 = load i32, ptr %0, align 8, !tbaa !251
  %32 = add nsw i32 %31, -65281
  %33 = icmp ugt i32 %32, 254
  br i1 %33, label %34, label %55

34:                                               ; preds = %30
  %35 = ashr i32 %32, 31
  %36 = load i32, ptr %12, align 4, !tbaa !253
  %37 = add nsw i32 %35, 1
  %38 = add i32 %37, %36
  %39 = trunc i32 %38 to i8
  %40 = load ptr, ptr %13, align 8, !tbaa !254
  store i8 %39, ptr %40, align 1, !tbaa !84
  %41 = load i32, ptr %12, align 4, !tbaa !253
  %42 = icmp sgt i32 %41, -1
  %43 = load ptr, ptr %13, align 8, !tbaa !254
  %44 = zext i1 %42 to i64
  %45 = getelementptr inbounds nuw i8, ptr %43, i64 %44
  store ptr %45, ptr %13, align 8, !tbaa !254
  %46 = load i32, ptr %11, align 8, !tbaa !252
  %.not16.i.i = icmp eq i32 %46, 0
  br i1 %.not16.i.i, label %._crit_edge.i.i, label %.lr.ph.i.i

.lr.ph.i.i:                                       ; preds = %34
  %47 = trunc nsw i32 %35 to i8
  br label %48

48:                                               ; preds = %48, %.lr.ph.i.i
  %49 = load ptr, ptr %13, align 8, !tbaa !254
  %50 = getelementptr inbounds nuw i8, ptr %49, i64 1
  store ptr %50, ptr %13, align 8, !tbaa !254
  store i8 %47, ptr %49, align 1, !tbaa !84
  %51 = load i32, ptr %11, align 8, !tbaa !252
  %52 = add nsw i32 %51, -1
  store i32 %52, ptr %11, align 8, !tbaa !252
  %.not.i.i = icmp eq i32 %52, 0
  br i1 %.not.i.i, label %._crit_edge.i.i, label %48, !llvm.loop !255

._crit_edge.i.i:                                  ; preds = %48, %34
  %53 = load i32, ptr %0, align 8, !tbaa !251
  %54 = ashr i32 %53, 8
  store i32 %54, ptr %12, align 4, !tbaa !253
  %.pre.i = load i32, ptr %9, align 4, !tbaa !250
  br label %renorm_encoder.exit.i

55:                                               ; preds = %30
  %56 = load i32, ptr %11, align 8, !tbaa !252
  %57 = add nsw i32 %56, 1
  store i32 %57, ptr %11, align 8, !tbaa !252
  br label %renorm_encoder.exit.i

renorm_encoder.exit.i:                            ; preds = %55, %._crit_edge.i.i
  %58 = phi i32 [ %28, %55 ], [ %.pre.i, %._crit_edge.i.i ]
  %59 = phi i32 [ %31, %55 ], [ %53, %._crit_edge.i.i ]
  %60 = shl i32 %59, 8
  %61 = and i32 %60, 65280
  store i32 %61, ptr %0, align 8, !tbaa !251
  %62 = shl i32 %58, 8
  store i32 %62, ptr %9, align 4, !tbaa !250
  br label %put_rac.exit

put_rac.exit:                                     ; preds = %15, %renorm_encoder.exit.i
  %63 = phi i32 [ %28, %15 ], [ %62, %renorm_encoder.exit.i ]
  %64 = sub nsw i32 %.02543, %.02345
  %indvars.iv.next = add nsw i64 %indvars.iv, 1
  %65 = icmp sgt i64 %indvars.iv, -1
  %66 = zext i1 %65 to i32
  %spec.select = shl nsw i32 %.02345, %66
  %.not = icmp slt i32 %64, %spec.select
  br i1 %.not, label %._crit_edge.loopexit, label %15, !llvm.loop !399

._crit_edge.loopexit:                             ; preds = %put_rac.exit
  %67 = trunc nsw i64 %indvars.iv.next to i32
  br label %._crit_edge

._crit_edge:                                      ; preds = %.._crit_edge_crit_edge, %._crit_edge.loopexit
  %68 = phi i32 [ %.pre55, %.._crit_edge_crit_edge ], [ %63, %._crit_edge.loopexit ]
  %.025.lcssa = phi i32 [ %2, %.._crit_edge_crit_edge ], [ %64, %._crit_edge.loopexit ]
  %.024.lcssa = phi i32 [ %3, %.._crit_edge_crit_edge ], [ %67, %._crit_edge.loopexit ]
  %69 = getelementptr inbounds nuw i8, ptr %1, i64 4
  %70 = sext i32 %.024.lcssa to i64
  %71 = getelementptr inbounds i8, ptr %69, i64 %70
  %72 = getelementptr inbounds nuw i8, ptr %0, i64 4
  %73 = load i8, ptr %71, align 1, !tbaa !84
  %74 = zext i8 %73 to i32
  %75 = mul nsw i32 %68, %74
  %76 = ashr i32 %75, 8
  %77 = sub i32 %68, %76
  store i32 %77, ptr %72, align 4, !tbaa !250
  %78 = getelementptr inbounds nuw i8, ptr %0, i64 16
  %79 = load i8, ptr %71, align 1, !tbaa !84
  %80 = zext i8 %79 to i64
  %81 = getelementptr inbounds nuw [256 x i8], ptr %78, i64 0, i64 %80
  %storemerge.i26 = load i8, ptr %81, align 1, !tbaa !84
  store i8 %storemerge.i26, ptr %71, align 1, !tbaa !84
  %82 = load i32, ptr %72, align 4, !tbaa !250
  %83 = icmp slt i32 %82, 256
  br i1 %83, label %84, label %put_rac.exit33

84:                                               ; preds = %._crit_edge
  %85 = load i32, ptr %0, align 8, !tbaa !251
  %86 = add nsw i32 %85, -65281
  %87 = icmp ugt i32 %86, 254
  br i1 %87, label %88, label %112

88:                                               ; preds = %84
  %89 = ashr i32 %86, 31
  %90 = getelementptr inbounds nuw i8, ptr %0, i64 12
  %91 = load i32, ptr %90, align 4, !tbaa !253
  %92 = add nsw i32 %89, 1
  %93 = add i32 %92, %91
  %94 = trunc i32 %93 to i8
  %95 = getelementptr inbounds nuw i8, ptr %0, i64 536
  %96 = load ptr, ptr %95, align 8, !tbaa !254
  store i8 %94, ptr %96, align 1, !tbaa !84
  %97 = load i32, ptr %90, align 4, !tbaa !253
  %98 = icmp sgt i32 %97, -1
  %99 = load ptr, ptr %95, align 8, !tbaa !254
  %100 = zext i1 %98 to i64
  %101 = getelementptr inbounds nuw i8, ptr %99, i64 %100
  store ptr %101, ptr %95, align 8, !tbaa !254
  %102 = getelementptr inbounds nuw i8, ptr %0, i64 8
  %103 = load i32, ptr %102, align 8, !tbaa !252
  %.not16.i.i28 = icmp eq i32 %103, 0
  br i1 %.not16.i.i28, label %._crit_edge.i.i31, label %.lr.ph.i.i29

.lr.ph.i.i29:                                     ; preds = %88
  %104 = trunc nsw i32 %89 to i8
  br label %105

105:                                              ; preds = %105, %.lr.ph.i.i29
  %106 = load ptr, ptr %95, align 8, !tbaa !254
  %107 = getelementptr inbounds nuw i8, ptr %106, i64 1
  store ptr %107, ptr %95, align 8, !tbaa !254
  store i8 %104, ptr %106, align 1, !tbaa !84
  %108 = load i32, ptr %102, align 8, !tbaa !252
  %109 = add nsw i32 %108, -1
  store i32 %109, ptr %102, align 8, !tbaa !252
  %.not.i.i30 = icmp eq i32 %109, 0
  br i1 %.not.i.i30, label %._crit_edge.i.i31, label %105, !llvm.loop !255

._crit_edge.i.i31:                                ; preds = %105, %88
  %110 = load i32, ptr %0, align 8, !tbaa !251
  %111 = ashr i32 %110, 8
  store i32 %111, ptr %90, align 4, !tbaa !253
  %.pre.i32 = load i32, ptr %72, align 4, !tbaa !250
  br label %renorm_encoder.exit.i27

112:                                              ; preds = %84
  %113 = getelementptr inbounds nuw i8, ptr %0, i64 8
  %114 = load i32, ptr %113, align 8, !tbaa !252
  %115 = add nsw i32 %114, 1
  store i32 %115, ptr %113, align 8, !tbaa !252
  br label %renorm_encoder.exit.i27

renorm_encoder.exit.i27:                          ; preds = %112, %._crit_edge.i.i31
  %116 = phi i32 [ %82, %112 ], [ %.pre.i32, %._crit_edge.i.i31 ]
  %117 = phi i32 [ %85, %112 ], [ %110, %._crit_edge.i.i31 ]
  %118 = shl i32 %117, 8
  %119 = and i32 %118, 65280
  store i32 %119, ptr %0, align 8, !tbaa !251
  %120 = shl i32 %116, 8
  store i32 %120, ptr %72, align 4, !tbaa !250
  br label %put_rac.exit33

put_rac.exit33:                                   ; preds = %._crit_edge, %renorm_encoder.exit.i27
  %121 = phi i32 [ %82, %._crit_edge ], [ %120, %renorm_encoder.exit.i27 ]
  %122 = icmp sgt i32 %.024.lcssa, 0
  br i1 %122, label %.lr.ph48, label %._crit_edge49

.lr.ph48:                                         ; preds = %put_rac.exit33
  %123 = getelementptr inbounds nuw i8, ptr %1, i64 31
  %124 = getelementptr inbounds nuw i8, ptr %0, i64 8
  %125 = getelementptr inbounds nuw i8, ptr %0, i64 12
  %126 = getelementptr inbounds nuw i8, ptr %0, i64 536
  %127 = zext nneg i32 %.024.lcssa to i64
  br label %128

._crit_edge49:                                    ; preds = %put_rac.exit41, %put_rac.exit33
  ret void

128:                                              ; preds = %.lr.ph48, %put_rac.exit41
  %129 = phi i32 [ %121, %.lr.ph48 ], [ %183, %put_rac.exit41 ]
  %indvars.iv52 = phi i64 [ %127, %.lr.ph48 ], [ %indvars.iv.next53, %put_rac.exit41 ]
  %indvars.iv.next53 = add nsw i64 %indvars.iv52, -1
  %130 = sub nsw i64 1, %indvars.iv52
  %131 = getelementptr inbounds i8, ptr %123, i64 %130
  %132 = load i8, ptr %131, align 1, !tbaa !84
  %133 = zext i8 %132 to i32
  %134 = mul nsw i32 %129, %133
  %135 = ashr i32 %134, 8
  %136 = trunc nuw nsw i64 %indvars.iv.next53 to i32
  %137 = shl nuw i32 1, %136
  %138 = and i32 %137, %.025.lcssa
  %.not.i = icmp eq i32 %138, 0
  %139 = sub i32 %129, %135
  br i1 %.not.i, label %143, label %140

140:                                              ; preds = %128
  %141 = load i32, ptr %0, align 8, !tbaa !251
  %142 = add nsw i32 %141, %139
  store i32 %142, ptr %0, align 8, !tbaa !251
  br label %143

143:                                              ; preds = %140, %128
  %.sink.i = phi i32 [ %135, %140 ], [ %139, %128 ]
  %.sink19.i = phi i64 [ 272, %140 ], [ 16, %128 ]
  store i32 %.sink.i, ptr %72, align 4, !tbaa !250
  %144 = getelementptr inbounds nuw i8, ptr %0, i64 %.sink19.i
  %145 = load i8, ptr %131, align 1, !tbaa !84
  %146 = zext i8 %145 to i64
  %147 = getelementptr inbounds nuw [256 x i8], ptr %144, i64 0, i64 %146
  %storemerge.i34 = load i8, ptr %147, align 1, !tbaa !84
  store i8 %storemerge.i34, ptr %131, align 1, !tbaa !84
  %148 = load i32, ptr %72, align 4, !tbaa !250
  %149 = icmp slt i32 %148, 256
  br i1 %149, label %150, label %put_rac.exit41

150:                                              ; preds = %143
  %151 = load i32, ptr %0, align 8, !tbaa !251
  %152 = add nsw i32 %151, -65281
  %153 = icmp ugt i32 %152, 254
  br i1 %153, label %154, label %175

154:                                              ; preds = %150
  %155 = ashr i32 %152, 31
  %156 = load i32, ptr %125, align 4, !tbaa !253
  %157 = add nsw i32 %155, 1
  %158 = add i32 %157, %156
  %159 = trunc i32 %158 to i8
  %160 = load ptr, ptr %126, align 8, !tbaa !254
  store i8 %159, ptr %160, align 1, !tbaa !84
  %161 = load i32, ptr %125, align 4, !tbaa !253
  %162 = icmp sgt i32 %161, -1
  %163 = load ptr, ptr %126, align 8, !tbaa !254
  %164 = zext i1 %162 to i64
  %165 = getelementptr inbounds nuw i8, ptr %163, i64 %164
  store ptr %165, ptr %126, align 8, !tbaa !254
  %166 = load i32, ptr %124, align 8, !tbaa !252
  %.not16.i.i36 = icmp eq i32 %166, 0
  br i1 %.not16.i.i36, label %._crit_edge.i.i39, label %.lr.ph.i.i37

.lr.ph.i.i37:                                     ; preds = %154
  %167 = trunc nsw i32 %155 to i8
  br label %168

168:                                              ; preds = %168, %.lr.ph.i.i37
  %169 = load ptr, ptr %126, align 8, !tbaa !254
  %170 = getelementptr inbounds nuw i8, ptr %169, i64 1
  store ptr %170, ptr %126, align 8, !tbaa !254
  store i8 %167, ptr %169, align 1, !tbaa !84
  %171 = load i32, ptr %124, align 8, !tbaa !252
  %172 = add nsw i32 %171, -1
  store i32 %172, ptr %124, align 8, !tbaa !252
  %.not.i.i38 = icmp eq i32 %172, 0
  br i1 %.not.i.i38, label %._crit_edge.i.i39, label %168, !llvm.loop !255

._crit_edge.i.i39:                                ; preds = %168, %154
  %173 = load i32, ptr %0, align 8, !tbaa !251
  %174 = ashr i32 %173, 8
  store i32 %174, ptr %125, align 4, !tbaa !253
  %.pre.i40 = load i32, ptr %72, align 4, !tbaa !250
  br label %renorm_encoder.exit.i35

175:                                              ; preds = %150
  %176 = load i32, ptr %124, align 8, !tbaa !252
  %177 = add nsw i32 %176, 1
  store i32 %177, ptr %124, align 8, !tbaa !252
  br label %renorm_encoder.exit.i35

renorm_encoder.exit.i35:                          ; preds = %175, %._crit_edge.i.i39
  %178 = phi i32 [ %148, %175 ], [ %.pre.i40, %._crit_edge.i.i39 ]
  %179 = phi i32 [ %151, %175 ], [ %173, %._crit_edge.i.i39 ]
  %180 = shl i32 %179, 8
  %181 = and i32 %180, 65280
  store i32 %181, ptr %0, align 8, !tbaa !251
  %182 = shl i32 %178, 8
  store i32 %182, ptr %72, align 4, !tbaa !250
  br label %put_rac.exit41

put_rac.exit41:                                   ; preds = %143, %renorm_encoder.exit.i35
  %183 = phi i32 [ %148, %143 ], [ %182, %renorm_encoder.exit.i35 ]
  %184 = icmp samesign ugt i64 %indvars.iv52, 1
  br i1 %184, label %128, label %._crit_edge49, !llvm.loop !400
}